target datalayout = "e-m:e-p270:32:32-p271:32:32-p272:64:64-i64:64-i128:128-f80:128-n8:16:32:64-S128"
target triple = "x86_64-pc-linux-gnu"

%struct.timespec = type { i64, i64 }

@.str.7 = private unnamed_addr constant [3 x i8] c"rb\00", align 1
@.str.8 = private unnamed_addr constant [29 x i8] c"Finished reading file \22%s\22.\0A\00", align 1
@.str.9 = private unnamed_addr constant [30 x i8] c"Cannot open input file \22%s\22.\0A\00", align 1
@.str.10 = private unnamed_addr constant [13 x i8] c"File reading\00", align 1
@.str.34 = private unnamed_addr constant [11 x i8] c"%9.2f sec\0A\00", align 1
@.str.45 = private unnamed_addr constant [5 x i8] c"%s =\00", align 1

; Function Attrs: inlinehint nounwind uwtable
define internal void @Abc_PrintTime(i32 noundef %0, ptr noundef %1, i64 noundef %2) #4 {
  %4 = alloca i32, align 4
  %5 = alloca ptr, align 8
  %6 = alloca i64, align 8
  store i32 %0, ptr %4, align 4, !tbaa !3
  store ptr %1, ptr %5, align 8, !tbaa !26
  store i64 %2, ptr %6, align 8, !tbaa !7
  %7 = load ptr, ptr %5, align 8, !tbaa !26
  call void (i32, ptr, ...) @Abc_Print(i32 noundef 1, ptr noundef @.str.45, ptr noundef %7)
  %8 = load i64, ptr %6, align 8, !tbaa !7
  %9 = sitofp i64 %8 to double
  %10 = fmul double 1.000000e+00, %9
  %11 = fdiv double %10, 1.000000e+06
  call void (i32, ptr, ...) @Abc_Print(i32 noundef 1, ptr noundef @.str.34, double noundef %11)
  ret void
}

; Function Attrs: inlinehint nounwind uwtable
define internal i64 @Abc_Clock() #4 {
  %1 = alloca i64, align 8
  %2 = alloca %struct.timespec, align 8
  %3 = alloca i32, align 4
  %4 = alloca i64, align 8
  call void @llvm.lifetime.start.p0(i64 16, ptr %2) #12
  %5 = call i32 @clock_gettime(i32 noundef 1, ptr noundef %2) #12
  %6 = icmp slt i32 %5, 0
  br i1 %6, label %7, label %8

7:                                                ; preds = %0
  store i64 -1, ptr %1, align 8
  store i32 1, ptr %3, align 4
  br label %19

8:                                                ; preds = %0
  call void @llvm.lifetime.start.p0(i64 8, ptr %4) #12
  %9 = getelementptr inbounds nuw %struct.timespec, ptr %2, i32 0, i32 0
  %10 = load i64, ptr %9, align 8, !tbaa !121
  %11 = mul nsw i64 %10, 1000000
  store i64 %11, ptr %4, align 8, !tbaa !7
  %12 = getelementptr inbounds nuw %struct.timespec, ptr %2, i32 0, i32 1
  %13 = load i64, ptr %12, align 8, !tbaa !123
  %14 = mul nsw i64 %13, 1000000
  %15 = sdiv i64 %14, 1000000000
  %16 = load i64, ptr %4, align 8, !tbaa !7
  %17 = add nsw i64 %16, %15
  store i64 %17, ptr %4, align 8, !tbaa !7
  %18 = load i64, ptr %4, align 8, !tbaa !7
  store i64 %18, ptr %1, align 8
  store i32 1, ptr %3, align 4
  call void @llvm.lifetime.end.p0(i64 8, ptr %4) #12
  br label %19

19:                                               ; preds = %8, %7
  call void @llvm.lifetime.end.p0(i64 16, ptr %2) #12
  %20 = load i64, ptr %1, align 8
  ret i64 %20
}

; Function Attrs: nounwind uwtable
define ptr @Dau_ReadFile(ptr noundef %0, i32 noundef %1) #0 {
  %3 = alloca ptr, align 8
  %4 = alloca i32, align 4
  %5 = alloca i64, align 8
  %6 = alloca ptr, align 8
  %7 = alloca ptr, align 8
  %8 = alloca i32, align 4
  store ptr %0, ptr %3, align 8, !tbaa !26
  store i32 %1, ptr %4, align 4, !tbaa !3
  call void @llvm.lifetime.start.p0(i64 8, ptr %5) #12
  %9 = call i64 @Abc_Clock()
  store i64 %9, ptr %5, align 8, !tbaa !7
  call void @llvm.lifetime.start.p0(i64 8, ptr %6) #12
  %10 = load ptr, ptr %3, align 8, !tbaa !26
  %11 = call noalias ptr @fopen(ptr noundef %10, ptr noundef @.str.7)
  store ptr %11, ptr %6, align 8, !tbaa !16
  call void @llvm.lifetime.start.p0(i64 8, ptr %7) #12
  %12 = load i32, ptr %4, align 4, !tbaa !3
  %13 = sext i32 %12 to i64
  %14 = call noalias ptr @calloc(i64 noundef %13, i64 noundef 8) #13
  store ptr %14, ptr %7, align 8, !tbaa !9
  call void @llvm.lifetime.start.p0(i64 4, ptr %8) #12
  %15 = load ptr, ptr %6, align 8, !tbaa !16
  %16 = icmp ne ptr %15, null
  br i1 %16, label %17, label %23

17:                                               ; preds = %2
  %18 = load ptr, ptr %7, align 8, !tbaa !9
  %19 = load i32, ptr %4, align 4, !tbaa !3
  %20 = sext i32 %19 to i64
  %21 = load ptr, ptr %6, align 8, !tbaa !16
  %22 = call i64 @fread(ptr noundef %18, i64 noundef 8, i64 noundef %20, ptr noundef %21)
  br label %24

23:                                               ; preds = %2
  br label %24

24:                                               ; preds = %23, %17
  %25 = phi i64 [ %22, %17 ], [ 0, %23 ]
  %26 = trunc i64 %25 to i32
  store i32 %26, ptr %8, align 4, !tbaa !3
  store i32 0, ptr %8, align 4, !tbaa !3
  %27 = load ptr, ptr %6, align 8, !tbaa !16
  %28 = icmp ne ptr %27, null
  br i1 %28, label %29, label %34

29:                                               ; preds = %24
  %30 = load ptr, ptr %3, align 8, !tbaa !26
  %31 = call i32 (ptr, ...) @printf(ptr noundef @.str.8, ptr noundef %30)
  %32 = load ptr, ptr %6, align 8, !tbaa !16
  %33 = call i32 @fclose(ptr noundef %32)
  br label %37

34:                                               ; preds = %24
  %35 = load ptr, ptr %3, align 8, !tbaa !26
  %36 = call i32 (ptr, ...) @printf(ptr noundef @.str.9, ptr noundef %35)
  br label %37

37:                                               ; preds = %34, %29
  %38 = call i64 @Abc_Clock()
  %39 = load i64, ptr %5, align 8, !tbaa !7
  %40 = sub nsw i64 %38, %39
  call void @Abc_PrintTime(i32 noundef 1, ptr noundef @.str.10, i64 noundef %40)
  %41 = load ptr, ptr %7, align 8, !tbaa !9
  call void @llvm.lifetime.end.p0(i64 4, ptr %8) #12
  call void @llvm.lifetime.end.p0(i64 8, ptr %7) #12
  call void @llvm.lifetime.end.p0(i64 8, ptr %6) #12
  call void @llvm.lifetime.end.p0(i64 8, ptr %5) #12
  ret ptr %41
}