; Function Attrs: nounwind uwtable
define noalias noundef ptr @Dau_ReadFile(ptr noundef %0, i32 noundef %1) local_unnamed_addr #0 {
  %3 = alloca %struct.timespec, align 8
  %4 = alloca %struct.timespec, align 8
  call void @llvm.lifetime.start.p0(i64 16, ptr nonnull %4) #26
  %5 = call i32 @clock_gettime(i32 noundef 1, ptr noundef nonnull %4) #26
  %6 = icmp slt i32 %5, 0
  br i1 %6, label %Abc_Clock.exit, label %7

7:                                                ; preds = %2
  %8 = load i64, ptr %4, align 8, !tbaa !3
  %.neg13 = mul i64 %8, -1000000
  %9 = getelementptr inbounds nuw i8, ptr %4, i64 8
  %10 = load i64, ptr %9, align 8, !tbaa !8
  %.neg = sdiv i64 %10, -1000
  %.neg14 = add i64 %.neg, %.neg13
  br label %Abc_Clock.exit

Abc_Clock.exit:                                   ; preds = %2, %7
  %.0.i.neg = phi i64 [ %.neg14, %7 ], [ 1, %2 ]
  call void @llvm.lifetime.end.p0(i64 16, ptr nonnull %4) #26
  %11 = call noalias ptr @fopen(ptr noundef %0, ptr noundef nonnull @.str.7)
  %12 = sext i32 %1 to i64
  %13 = call noalias ptr @calloc(i64 noundef %12, i64 noundef 8) #27
  %.not = icmp eq ptr %11, null
  br i1 %.not, label %.critedge, label %14

14:                                               ; preds = %Abc_Clock.exit
  %15 = call i64 @fread(ptr noundef %13, i64 noundef 8, i64 noundef %12, ptr noundef nonnull %11)
  %16 = call i32 (ptr, ...) @printf(ptr noundef nonnull dereferenceable(1) @.str.8, ptr noundef %0)
  %17 = call i32 @fclose(ptr noundef nonnull %11)
  br label %19

.critedge:                                        ; preds = %Abc_Clock.exit
  %18 = call i32 (ptr, ...) @printf(ptr noundef nonnull dereferenceable(1) @.str.9, ptr noundef %0)
  br label %19

19:                                               ; preds = %.critedge, %14
  call void @llvm.lifetime.start.p0(i64 16, ptr nonnull %3) #26
  %20 = call i32 @clock_gettime(i32 noundef 1, ptr noundef nonnull %3) #26
  %21 = icmp slt i32 %20, 0
  br i1 %21, label %Abc_Clock.exit12, label %22

22:                                               ; preds = %19
  %23 = load i64, ptr %3, align 8, !tbaa !3
  %24 = mul nsw i64 %23, 1000000
  %25 = getelementptr inbounds nuw i8, ptr %3, i64 8
  %26 = load i64, ptr %25, align 8, !tbaa !8
  %27 = sdiv i64 %26, 1000
  %28 = add nsw i64 %27, %24
  br label %Abc_Clock.exit12

Abc_Clock.exit12:                                 ; preds = %19, %22
  %.0.i11 = phi i64 [ %28, %22 ], [ -1, %19 ]
  call void @llvm.lifetime.end.p0(i64 16, ptr nonnull %3) #26
  %29 = add i64 %.0.i11, %.0.i.neg
  call void (i32, ptr, ...) @Abc_Print(i32 poison, ptr noundef nonnull @.str.45, ptr noundef nonnull @.str.10)
  %30 = sitofp i64 %29 to double
  %31 = fdiv double %30, 1.000000e+06
  call void (i32, ptr, ...) @Abc_Print(i32 poison, ptr noundef nonnull @.str.34, double noundef %31)
  ret ptr %13
}